; Function Attrs: nounwind sspstrong uwtable
define internal noundef i32 @uhci_post_load(ptr noundef writeonly captures(none) %opaque, i32 noundef %version_id) #0 {
entry:
  %cmp = icmp slt i32 %version_id, 2
  br i1 %cmp, label %if.then, label %if.end

if.then:                                          ; preds = %entry
  %call = tail call i64 @qemu_clock_get_ns(i32 noundef 1) #11
  %add = add i64 %call, 1000000
  %expire_time = getelementptr inbounds nuw i8, ptr %opaque, i64 3088
  store i64 %add, ptr %expire_time, align 16
  br label %if.end

if.end:                                           ; preds = %if.then, %entry
  ret i32 0
}